target datalayout = "e-m:e-p270:32:32-p271:32:32-p272:64:64-i64:64-i128:128-f80:128-n8:16:32:64-S128"
target triple = "x86_64-unknown-linux-gnu"

module asm ".section\09\22.initcall1.init\22, \22a\22\09\09"
module asm "__initcall__kmod_cpufreq_userspace__333_151_cpufreq_gov_userspace_init1:\09\09\09"
module asm ".long\09cpufreq_gov_userspace_init - .\09"
module asm ".previous\09\09\09\09\09"

%struct.cpufreq_governor = type { [16 x i8], ptr, ptr, ptr, ptr, ptr, ptr, ptr, %struct.list_head, ptr, i8 }
%struct.list_head = type { ptr, ptr }
%struct.lock_class_key = type {}

@__UNIQUE_ID_author329 = internal constant [97 x i8] c"cpufreq_userspace.author=Dominik Brodowski <linux@brodo.de>, Russell King <rmk@arm.linux.org.uk>\00", section ".modinfo", align 1
@__UNIQUE_ID_description330 = internal constant [66 x i8] c"cpufreq_userspace.description=CPUfreq policy governor 'userspace'\00", section ".modinfo", align 1
@__UNIQUE_ID_file331 = internal constant [57 x i8] c"cpufreq_userspace.file=drivers/cpufreq/cpufreq_userspace\00", section ".modinfo", align 1
@__UNIQUE_ID_license332 = internal constant [30 x i8] c"cpufreq_userspace.license=GPL\00", section ".modinfo", align 1
@cpufreq_gov_userspace = internal global %struct.cpufreq_governor { [16 x i8] c"userspace\00\00\00\00\00\00\00", ptr @cpufreq_userspace_policy_init, ptr @cpufreq_userspace_policy_exit, ptr @cpufreq_userspace_policy_start, ptr @cpufreq_userspace_policy_stop, ptr @cpufreq_userspace_policy_limits, ptr @show_speed, ptr @cpufreq_set, %struct.list_head zeroinitializer, ptr null, i8 0 }, align 8
@__UNIQUE_ID___addressable_cpufreq_gov_userspace_init334 = internal global ptr @cpufreq_gov_userspace_init, section ".discard.addressable", align 8
@__exitcall_cpufreq_gov_userspace_exit = internal global ptr @cpufreq_gov_userspace_exit, section ".exitcall.exit", align 8
@cpufreq_userspace_policy_init.__key = internal global %struct.lock_class_key zeroinitializer, align 1
@.str = private unnamed_addr constant [18 x i8] c"&userspace->mutex\00", align 1
@kmalloc_caches = external dso_local local_unnamed_addr global [3 x [14 x ptr]], align 16
@.str.2 = private unnamed_addr constant [36 x i8] c"drivers/cpufreq/cpufreq_userspace.c\00", align 1
@.str.3 = private unnamed_addr constant [4 x i8] c"%u\0A\00", align 1
@llvm.compiler.used = appending global [7 x ptr] [ptr @__UNIQUE_ID___addressable_cpufreq_gov_userspace_init334, ptr @__UNIQUE_ID_author329, ptr @__UNIQUE_ID_description330, ptr @__UNIQUE_ID_file331, ptr @__UNIQUE_ID_license332, ptr @__exitcall_cpufreq_gov_userspace_exit, ptr @cpufreq_gov_userspace_exit], section "llvm.metadata"

; Function Attrs: fn_ret_thunk_extern mustprogress nofree norecurse nosync nounwind null_pointer_is_valid willreturn memory(none)
define dso_local noundef nonnull ptr @cpufreq_default_governor() local_unnamed_addr #0 align 16 {
  ret ptr @cpufreq_gov_userspace
}

; Function Attrs: cold fn_ret_thunk_extern nounwind null_pointer_is_valid optsize
define internal i32 @cpufreq_gov_userspace_init() #1 section ".init.text" align 16 {
  %1 = tail call i32 @cpufreq_register_governor(ptr noundef nonnull @cpufreq_gov_userspace) #7
  ret i32 %1
}

; Function Attrs: cold fn_ret_thunk_extern nounwind null_pointer_is_valid optsize
define internal void @cpufreq_gov_userspace_exit() #1 section ".exit.text" align 16 {
  tail call void @cpufreq_unregister_governor(ptr noundef nonnull @cpufreq_gov_userspace) #7
  ret void
}

; Function Attrs: null_pointer_is_valid
declare dso_local void @cpufreq_unregister_governor(ptr noundef) local_unnamed_addr #2

; Function Attrs: fn_ret_thunk_extern nounwind null_pointer_is_valid
define internal noundef i32 @cpufreq_userspace_policy_init(ptr nocapture noundef writeonly %0) #3 align 16 {
  %2 = load ptr, ptr getelementptr inbounds ([3 x [14 x ptr]], ptr @kmalloc_caches, i64 0, i64 0, i64 6), align 16
  %3 = tail call noalias noundef align 8 dereferenceable_or_null(40) ptr @kmalloc_trace(ptr noundef %2, i32 noundef 3520, i64 noundef 40) #8
  %4 = icmp eq ptr %3, null
  br i1 %4, label %8, label %5

5:                                                ; preds = %1
  %6 = getelementptr inbounds i8, ptr %3, i64 8
  tail call void @__mutex_init(ptr noundef %6, ptr noundef nonnull @.str, ptr noundef nonnull @cpufreq_userspace_policy_init.__key) #7
  %7 = getelementptr inbounds i8, ptr %0, i64 88
  store ptr %3, ptr %7, align 8
  br label %8

8:                                                ; preds = %5, %1
  %9 = phi i32 [ 0, %5 ], [ -12, %1 ]
  ret i32 %9
}

; Function Attrs: fn_ret_thunk_extern nounwind null_pointer_is_valid
define internal void @cpufreq_userspace_policy_exit(ptr nocapture noundef %0) #3 align 16 {
  %2 = getelementptr inbounds i8, ptr %0, i64 88
  %3 = load ptr, ptr %2, align 8
  tail call void @kfree(ptr noundef %3) #7
  store ptr null, ptr %2, align 8
  ret void
}

; Function Attrs: fn_ret_thunk_extern nounwind null_pointer_is_valid
define internal noundef i32 @cpufreq_userspace_policy_start(ptr nocapture noundef readonly %0) #3 align 16 {
  %2 = getelementptr inbounds i8, ptr %0, i64 60
  %3 = load i32, ptr %2, align 4
  %4 = icmp eq i32 %3, 0
  br i1 %4, label %5, label %6, !prof !5

5:                                                ; preds = %1
  tail call void asm sideeffect "328: nop\0A\09.pushsection .discard.instr_begin\0A\09.long 328b - .\0A\09.popsection\0A\09", "i,~{dirflag},~{fpsr},~{flags}"(i32 328) #7, !srcloc !6
  tail call void asm sideeffect "1:\09.byte 0x0f, 0x0b\0A.pushsection __bug_table,\22aw\22\0A2:\09.long 1b - .\09# bug_entry::bug_addr\0A\09.long ${0:c} - .\09# bug_entry::file\0A\09.word ${1:c}\09# bug_entry::line\0A\09.word ${2:c}\09# bug_entry::flags\0A\09.org 2b+${3:c}\0A.popsection\0A", "i,i,i,i,~{dirflag},~{fpsr},~{flags}"(ptr nonnull @.str.2, i32 83, i32 0, i64 12) #7, !srcloc !7
  unreachable

6:                                                ; preds = %1
  %7 = getelementptr inbounds i8, ptr %0, i64 88
  %8 = load ptr, ptr %7, align 8
  %9 = getelementptr inbounds i8, ptr %8, i64 8
  tail call void @mutex_lock(ptr noundef %9) #7
  store i32 1, ptr %8, align 8
  %10 = load i32, ptr %2, align 4
  %11 = getelementptr inbounds i8, ptr %8, i64 4
  store i32 %10, ptr %11, align 4
  tail call void @mutex_unlock(ptr noundef %9) #7
  ret i32 0
}

; Function Attrs: fn_ret_thunk_extern nounwind null_pointer_is_valid
define internal void @cpufreq_userspace_policy_stop(ptr nocapture noundef readonly %0) #3 align 16 {
  %2 = getelementptr inbounds i8, ptr %0, i64 88
  %3 = load ptr, ptr %2, align 8
  %4 = getelementptr inbounds i8, ptr %3, i64 8
  tail call void @mutex_lock(ptr noundef %4) #7
  store i32 0, ptr %3, align 8
  %5 = getelementptr inbounds i8, ptr %3, i64 4
  store i32 0, ptr %5, align 4
  tail call void @mutex_unlock(ptr noundef %4) #7
  ret void
}

; Function Attrs: fn_ret_thunk_extern nounwind null_pointer_is_valid
define internal void @cpufreq_userspace_policy_limits(ptr noundef %0) #3 align 16 {
  %2 = getelementptr inbounds i8, ptr %0, i64 88
  %3 = load ptr, ptr %2, align 8
  %4 = getelementptr inbounds i8, ptr %3, i64 8
  tail call void @mutex_lock(ptr noundef %4) #7
  %5 = getelementptr inbounds i8, ptr %0, i64 56
  %6 = load i32, ptr %5, align 8
  %7 = getelementptr inbounds i8, ptr %3, i64 4
  %8 = load i32, ptr %7, align 4
  %9 = icmp ult i32 %6, %8
  br i1 %9, label %10, label %12

10:                                               ; preds = %1
  %11 = tail call i32 @__cpufreq_driver_target(ptr noundef %0, i32 noundef %6, i32 noundef 1) #7
  br label %20

12:                                               ; preds = %1
  %13 = getelementptr inbounds i8, ptr %0, i64 52
  %14 = load i32, ptr %13, align 4
  %15 = icmp ugt i32 %14, %8
  br i1 %15, label %16, label %18

16:                                               ; preds = %12
  %17 = tail call i32 @__cpufreq_driver_target(ptr noundef %0, i32 noundef %14, i32 noundef 0) #7
  br label %20

18:                                               ; preds = %12
  %19 = tail call i32 @__cpufreq_driver_target(ptr noundef %0, i32 noundef %8, i32 noundef 0) #7
  br label %20

20:                                               ; preds = %18, %16, %10
  tail call void @mutex_unlock(ptr noundef %4) #7
  ret void
}

; Function Attrs: fn_ret_thunk_extern nofree nounwind null_pointer_is_valid
define internal noundef i64 @show_speed(ptr nocapture noundef readonly %0, ptr nocapture noundef writeonly %1) #4 align 16 {
  %3 = getelementptr inbounds i8, ptr %0, i64 60
  %4 = load i32, ptr %3, align 4
  %5 = tail call i32 (ptr, ptr, ...) @sprintf(ptr noundef %1, ptr noundef nonnull dereferenceable(1) @.str.3, i32 noundef %4) #7
  %6 = sext i32 %5 to i64
  ret i64 %6
}

; Function Attrs: fn_ret_thunk_extern nounwind null_pointer_is_valid
define internal i32 @cpufreq_set(ptr noundef %0, i32 noundef %1) #3 align 16 {
  %3 = getelementptr inbounds i8, ptr %0, i64 88
  %4 = load ptr, ptr %3, align 8
  %5 = getelementptr inbounds i8, ptr %4, i64 8
  tail call void @mutex_lock(ptr noundef %5) #7
  %6 = load i32, ptr %4, align 8
  %7 = icmp eq i32 %6, 0
  br i1 %7, label %11, label %8

8:                                                ; preds = %2
  %9 = getelementptr inbounds i8, ptr %4, i64 4
  store i32 %1, ptr %9, align 4
  %10 = tail call i32 @__cpufreq_driver_target(ptr noundef %0, i32 noundef %1, i32 noundef 0) #7
  br label %11

11:                                               ; preds = %8, %2
  %12 = phi i32 [ %10, %8 ], [ -22, %2 ]
  tail call void @mutex_unlock(ptr noundef %5) #7
  ret i32 %12
}

; Function Attrs: null_pointer_is_valid
declare dso_local void @__mutex_init(ptr noundef, ptr noundef, ptr noundef) local_unnamed_addr #2

; Function Attrs: null_pointer_is_valid allocsize(2)
declare dso_local noalias ptr @kmalloc_trace(ptr noundef, i32 noundef, i64 noundef) local_unnamed_addr #5

; Function Attrs: null_pointer_is_valid
declare dso_local void @kfree(ptr noundef) local_unnamed_addr #2

; Function Attrs: null_pointer_is_valid
declare dso_local void @mutex_lock(ptr noundef) local_unnamed_addr #2

; Function Attrs: null_pointer_is_valid
declare dso_local void @mutex_unlock(ptr noundef) local_unnamed_addr #2

; Function Attrs: null_pointer_is_valid
declare dso_local i32 @__cpufreq_driver_target(ptr noundef, i32 noundef, i32 noundef) local_unnamed_addr #2

; Function Attrs: nofree nounwind null_pointer_is_valid
declare dso_local noundef i32 @sprintf(ptr noalias nocapture noundef writeonly, ptr nocapture noundef readonly, ...) local_unnamed_addr #6

; Function Attrs: null_pointer_is_valid
declare dso_local i32 @cpufreq_register_governor(ptr noundef) local_unnamed_addr #2


!llvm.module.flags = !{!0, !1, !2, !3, !4}

!0 = !{i32 1, !"wchar_size", i32 2}
!1 = !{i32 8, !"cf-protection-branch", i32 1}
!2 = !{i32 4, !"function_return_thunk_extern", i32 1}
!3 = !{i32 4, !"indirect_branch_cs_prefix", i32 1}
!4 = !{i32 4, !"SkipRaxSetup", i32 1}
!5 = !{!"branch_weights", i32 1, i32 2000}
!6 = !{i64 2154451001, i64 2154450810, i64 2154450862, i64 2154450908, i64 2154450936}
!7 = !{i64 2154451075, i64 2154451104, i64 2154451150, i64 2154451208, i64 2154451262, i64 2154451316, i64 2154451371, i64 2154451402}
